(lp0
(dp1
Vapplication_type
p2
Vads
p3
sVapplication_description
p4
VRoku Live ad application
p5
sVapplication_id
p6
V243e71e9eed34d39894818979bddf259
p7
sVapplication_ad_configuration
p8
(dp9
Vad_configuration_expected_response_type
p10
VVast
p11
sVad_configuration_strategy
p12
VSingleAdResponse
p13
sVad_configuration_description
p14
VRoku Live Ad Config
p15
sVad_configuration_url_format
p16
Vhttps://ads.brightcove.com/ads?tech=vast&dur=60
p17
sVad_configuration_transforms
p18
(lp19
(dp20
Vxpath
p21
V/
p22
sVxslt
p23
V<xsl:stylesheet version="1.0" xmlns:xsl="http://www.w3.org/1999/XSL/Transform" xmlns:Det="http://Det.com"><xsl:output omit-xml-declaration="yes"/><xsl:template match="node()|@*"><xsl:copy><xsl:apply-templates select="node()|@*"/></xsl:copy></xsl:template></xsl:stylesheet>
p24
sassVaccount_id
p25
Vb1eee28922d14ed0b737229dd8cfa457
p26
sa(dp27
Vapplication_type
p28
Vads
p29
sVapplication_description
p30
VNAB 2018 Live ad application
p31
sVapplication_id
p32
V6391b5c2eaae47f09ee4c38c9c355d30
p33
sVapplication_ad_configuration
p34
(dp35
Vad_configuration_expected_response_type
p36
VVast
p37
sVad_configuration_strategy
p38
VSingleAdResponse
p39
sVad_configuration_description
p40
VNAB 2018 Live Ad Config
p41
sVad_configuration_url_format
p42
Vhttps://ads.brightcove.com/ads?tech=vast&dur=60
p43
sVad_configuration_transforms
p44
(lp45
(dp46
Vxpath
p47
g22
sVxslt
p48
V<xsl:stylesheet version="1.0" xmlns:xsl="http://www.w3.org/1999/XSL/Transform" xmlns:Det="http://Det.com"><xsl:output omit-xml-declaration="yes"/><xsl:template match="node()|@*"><xsl:copy><xsl:apply-templates select="node()|@*"/></xsl:copy></xsl:template></xsl:stylesheet>
p49
sassVaccount_id
p50
Vb1eee28922d14ed0b737229dd8cfa457
p51
sa(dp52
Vapplication_type
p53
Vads
p54
sVapplication_description
p55
VJim's Test ad application
p56
sVapplication_id
p57
V8ca79bd19f8c42b6b0ec0fce826694ae
p58
sVapplication_ad_configuration
p59
(dp60
Vad_configuration_expected_response_type
p61
VVast
p62
sVad_configuration_strategy
p63
VSingleAdResponse
p64
sVad_configuration_description
p65
VJim's Test ad config
p66
sVad_configuration_url_format
p67
Vhttps://a71csqxusb.execute-api.us-west-2.amazonaws.com/stable/ads
p68
sVad_configuration_transforms
p69
(lp70
(dp71
Vxpath
p72
g22
sVxslt
p73
V<xsl:stylesheet version="1.0" xmlns:xsl="http://www.w3.org/1999/XSL/Transform" xmlns:Det="http://Det.com"><xsl:output omit-xml-declaration="yes"/><xsl:template match="node()|@*"><xsl:copy><xsl:apply-templates select="node()|@*"/></xsl:copy></xsl:template></xsl:stylesheet>
p74
sassVaccount_id
p75
Vb1eee28922d14ed0b737229dd8cfa457
p76
sa(dp77
Vapplication_type
p78
Vads
p79
sVapplication_description
p80
VHouse Ads - b1eee28922d14ed0b737229dd8cfa457
p81
sVapplication_id
p82
V966d90028ef14baa94bbf86eda4c77cc
p83
sVapplication_ad_configuration
p84
(dp85
Vad_configuration_expected_response_type
p86
VVast
p87
sVad_configuration_strategy
p88
VSingleAdResponse
p89
sVad_configuration_description
p90
VHouse Ads Config - b1eee28922d14ed0b737229dd8cfa457
p91
sVad_configuration_url_format
p92
Vhttps://s3-us-west-2.amazonaws.com/alive-qa/ads/subaru/subaru-dogtested.xml
p93
sVad_configuration_transforms
p94
(lp95
(dp96
Vxpath
p97
g22
sVxslt
p98
V<xsl:stylesheet version="1.0" xmlns:xsl="http://www.w3.org/1999/XSL/Transform" xmlns:Det="http://Det.com"><xsl:output omit-xml-declaration="yes"/><xsl:template match="node()|@*"><xsl:copy><xsl:apply-templates select="node()|@*"/></xsl:copy></xsl:template></xsl:stylesheet>
p99
sassVaccount_id
p100
Vb1eee28922d14ed0b737229dd8cfa457
p101
sa(dp102
Vapplication_type
p103
Vads
p104
sVapplication_description
p105
VRoku Live ad application
p106
sVapplication_id
p107
Vea0ca3c6f39c47bd86d38c563e35d36b
p108
sVapplication_ad_configuration
p109
(dp110
Vad_configuration_expected_response_type
p111
VVast
p112
sVad_configuration_strategy
p113
VSingleAdResponse
p114
sVad_configuration_description
p115
VRoku Live Ad Config
p116
sVad_configuration_url_format
p117
Vhttps://ads.brightcove.com/ads?tech=vast&dur=60
p118
sVad_configuration_transforms
p119
(lp120
(dp121
Vxpath
p122
g22
sVxslt
p123
V<xsl:stylesheet version="1.0" xmlns:xsl="http://www.w3.org/1999/XSL/Transform" xmlns:Det="http://Det.com"><xsl:output omit-xml-declaration="yes"/><xsl:template match="node()|@*"><xsl:copy><xsl:apply-templates select="node()|@*"/></xsl:copy></xsl:template></xsl:stylesheet>
p124
sassVaccount_id
p125
Vb1eee28922d14ed0b737229dd8cfa457
p126
sa.