(dp0
Vstream_name
p1
Valive
p2
sVoutputs
p3
(lp4
(dp5
Vplayback_url
p6
Vhttps://bcovlive-a.akamaihd.net/2697cf61828545ed9583a141d4f4049d/us-west-2/NA/profile_0/chunklist.m3u8
p7
sVlabel
p8
Vhls720p
p9
sVplayback_url_dvr
p10
Vhttps://bcovlive-a.akamaihd.net/2697cf61828545ed9583a141d4f4049d/us-west-2/NA/profile_0/chunklist_dvr.m3u8
p11
sVplayback_added_cdns
p12
(lp13
sVplayback_url_vod
p14
Vhttps://bcovlive-a.akamaihd.net/2697cf61828545ed9583a141d4f4049d/us-west-2/NA/profile_0/chunklist_vod.m3u8
p15
sVid
p16
V0-2697cf61828545ed9583a141d4f4049d
p17
sa(dp18
Vplayback_url
p19
Vhttps://bcovlive-a.akamaihd.net/2697cf61828545ed9583a141d4f4049d/us-west-2/NA/profile_1/chunklist.m3u8
p20
sVlabel
p21
Vhls480p
p22
sVplayback_url_dvr
p23
Vhttps://bcovlive-a.akamaihd.net/2697cf61828545ed9583a141d4f4049d/us-west-2/NA/profile_1/chunklist_dvr.m3u8
p24
sVplayback_added_cdns
p25
(lp26
sVplayback_url_vod
p27
Vhttps://bcovlive-a.akamaihd.net/2697cf61828545ed9583a141d4f4049d/us-west-2/NA/profile_1/chunklist_vod.m3u8
p28
sVid
p29
V1-2697cf61828545ed9583a141d4f4049d
p30
sa(dp31
Vdvr_filename
p32
Vplaylist_dvr.m3u8
p33
sVplaylist_type
p34
VdefaultS3
p35
sVplayback_url
p36
Vhttps://bcovlive-a.akamaihd.net/2697cf61828545ed9583a141d4f4049d/us-west-2/NA/playlist.m3u8
p37
sVfilename
p38
Vplaylist.m3u8
p39
sVplayback_url_dvr
p40
Vhttps://bcovlive-a.akamaihd.net/2697cf61828545ed9583a141d4f4049d/us-west-2/NA/playlist_dvr.m3u8
p41
sVtype
p42
Vplaylist
p43
sVid
p44
V2-2697cf61828545ed9583a141d4f4049d
p45
sVssai_playback_urls
p46
(dp47
V85e2c45ad595486b866d140e6f789cea
p48
(dp49
Vplayback_url_dvr
p50
Vhttps://bcovlive-a.akamaihd.net/2697cf61828545ed9583a141d4f4049d/us-west-2/NA/85e2c45ad595486b866d140e6f789cea/playlist_dvr_ssaiM.m3u8
p51
sVtype
p52
Vads
p53
sVplayback_added_cdns
p54
(lp55
sVplayback_url
p56
Vhttps://bcovlive-a.akamaihd.net/2697cf61828545ed9583a141d4f4049d/us-west-2/NA/85e2c45ad595486b866d140e6f789cea/playlist_ssaiM.m3u8
p57
sVdescription
p58
VRoku Live ad application
p59
sssasVplayback_url
p60
Vhttps://bcovlive-a.akamaihd.net/2697cf61828545ed9583a141d4f4049d/us-west-2/NA/playlist.m3u8
p61
sVplayback_url_dvr
p62
Vhttps://bcovlive-a.akamaihd.net/2697cf61828545ed9583a141d4f4049d/us-west-2/NA/playlist_dvr.m3u8
p63
sVstatic
p64
I00
sVencryption
p65
(dp66
sVstream_url
p67
Vrtmp://ec2-34-213-175-144.us-west-2.compute.amazonaws.com:1935/2697cf61828545ed9583a141d4f4049d
p68
sVid
p69
V2697cf61828545ed9583a141d4f4049d
p70
sVssai_playback_urls
p71
(dp72
V85e2c45ad595486b866d140e6f789cea
p73
(dp74
Vplayback_url_dvr
p75
Vhttps://bcovlive-a.akamaihd.net/2697cf61828545ed9583a141d4f4049d/us-west-2/NA/85e2c45ad595486b866d140e6f789cea/playlist_dvr_ssaiM.m3u8
p76
sVtype
p77
Vads
p78
sVplayback_added_cdns
p79
(lp80
sVplayback_url
p81
Vhttps://bcovlive-a.akamaihd.net/2697cf61828545ed9583a141d4f4049d/us-west-2/NA/85e2c45ad595486b866d140e6f789cea/playlist_ssaiM.m3u8
p82
sVdescription
p83
VRoku Live ad application
p84
sss.